; Function Attrs: mustprogress uwtable
define void @_ZN5rfb_t5writeERKNSt7__cxx1112basic_stringIcSt11char_traitsIcESaIcEEE(ptr nocapture noundef nonnull readonly align 8 dereferenceable(168) %0, ptr nocapture noundef nonnull readonly align 8 dereferenceable(32) %1) local_unnamed_addr #0 align 2 personality ptr @__gxx_personality_v0 {
  %3 = getelementptr inbounds i8, ptr %0, i64 60
  %4 = load i32, ptr %3, align 4
  %5 = load ptr, ptr %1, align 8
  %6 = getelementptr inbounds i8, ptr %1, i64 8
  %7 = load i64, ptr %6, align 8
  %8 = tail call i64 @write(i32 noundef %4, ptr noundef %5, i64 noundef %7)
  %9 = load i64, ptr %6, align 8
  %.not = icmp eq i64 %8, %9
  br i1 %.not, label %15, label %10

10:                                               ; preds = %2
  %11 = tail call ptr @__cxa_allocate_exception(i64 16) #23
  invoke void @_ZNSt13runtime_errorC1EPKc(ptr noundef nonnull align 8 dereferenceable(16) %11, ptr noundef nonnull @.str.10)
          to label %12 unwind label %13

12:                                               ; preds = %10
  tail call void @__cxa_throw(ptr nonnull %11, ptr nonnull @_ZTISt13runtime_error, ptr nonnull @_ZNSt13runtime_errorD1Ev) #24
  unreachable

13:                                               ; preds = %10
  %14 = landingpad { ptr, i32 }
          cleanup
  tail call void @__cxa_free_exception(ptr %11) #23
  resume { ptr, i32 } %14

15:                                               ; preds = %2
  ret void
}